; Function Attrs: mustprogress uwtable
define void @_ZN2cv4gapi5divRCERKNS_7GScalarERKNS_4GMatEdi(ptr dead_on_unwind noalias writable sret(%"class.cv::GMat") align 8 %0, ptr noundef nonnull readonly align 8 captures(none) dereferenceable(16) %1, ptr noundef nonnull readonly align 8 captures(none) dereferenceable(16) %2, double noundef %3, i32 noundef %4) local_unnamed_addr #3 personality ptr @__gxx_personality_v0 {
  %6 = alloca %"class.cv::GScalar", align 8
  %7 = alloca %"class.cv::GMat", align 8
  %8 = load ptr, ptr %1, align 8, !tbaa !3
  store ptr %8, ptr %6, align 8, !tbaa !3
  %9 = getelementptr inbounds nuw i8, ptr %6, i64 8
  %10 = getelementptr inbounds nuw i8, ptr %1, i64 8
  %11 = load ptr, ptr %10, align 8, !tbaa !11
  store ptr %11, ptr %9, align 8, !tbaa !11
  %.not.i.i.i.i = icmp eq ptr %11, null
  br i1 %.not.i.i.i.i, label %_ZN2cv7GScalarC2ERKS0_.exit, label %12

12:                                               ; preds = %5
  %13 = getelementptr inbounds nuw i8, ptr %11, i64 8
  %14 = load i8, ptr @__libc_single_threaded, align 1, !tbaa !12
  %.not.i.i.i.i.i = icmp eq i8 %14, 0
  br i1 %.not.i.i.i.i.i, label %18, label %15

15:                                               ; preds = %12
  %16 = load i32, ptr %13, align 4, !tbaa !13
  %17 = add nsw i32 %16, 1
  store i32 %17, ptr %13, align 4, !tbaa !13
  br label %_ZN2cv7GScalarC2ERKS0_.exit

18:                                               ; preds = %12
  %19 = atomicrmw volatile add ptr %13, i32 1 acq_rel, align 4
  br label %_ZN2cv7GScalarC2ERKS0_.exit

_ZN2cv7GScalarC2ERKS0_.exit:                      ; preds = %5, %15, %18
  %20 = load ptr, ptr %2, align 8, !tbaa !3
  store ptr %20, ptr %7, align 8, !tbaa !3
  %21 = getelementptr inbounds nuw i8, ptr %7, i64 8
  %22 = getelementptr inbounds nuw i8, ptr %2, i64 8
  %23 = load ptr, ptr %22, align 8, !tbaa !11
  store ptr %23, ptr %21, align 8, !tbaa !11
  %.not.i.i.i.i5 = icmp eq ptr %23, null
  br i1 %.not.i.i.i.i5, label %_ZN2cv4GMatC2ERKS0_.exit, label %24

24:                                               ; preds = %_ZN2cv7GScalarC2ERKS0_.exit
  %25 = getelementptr inbounds nuw i8, ptr %23, i64 8
  %26 = load i8, ptr @__libc_single_threaded, align 1, !tbaa !12
  %.not.i.i.i.i.i6 = icmp eq i8 %26, 0
  br i1 %.not.i.i.i.i.i6, label %30, label %27

27:                                               ; preds = %24
  %28 = load i32, ptr %25, align 4, !tbaa !13
  %29 = add nsw i32 %28, 1
  store i32 %29, ptr %25, align 4, !tbaa !13
  br label %_ZN2cv4GMatC2ERKS0_.exit

30:                                               ; preds = %24
  %31 = atomicrmw volatile add ptr %25, i32 1 acq_rel, align 4
  br label %_ZN2cv4GMatC2ERKS0_.exit

_ZN2cv4GMatC2ERKS0_.exit:                         ; preds = %_ZN2cv7GScalarC2ERKS0_.exit, %27, %30
  invoke void @_ZN2cv11GKernelTypeINS_4gapi4core6GDivRCESt8functionIFNS_4GMatENS_7GScalarES5_diEEE2onES6_S5_di(ptr dead_on_unwind writable sret(%"class.cv::GMat") align 8 %0, ptr noundef nonnull %6, ptr noundef nonnull %7, double noundef %3, i32 noundef %4)
          to label %32 unwind label %77

32:                                               ; preds = %_ZN2cv4GMatC2ERKS0_.exit
  %33 = load ptr, ptr %21, align 8, !tbaa !11
  %.not.i.i.i = icmp eq ptr %33, null
  br i1 %.not.i.i.i, label %_ZN2cv4GMatD2Ev.exit, label %34

34:                                               ; preds = %32
  %35 = getelementptr inbounds nuw i8, ptr %33, i64 8
  %36 = load atomic i64, ptr %35 acquire, align 8
  %37 = icmp eq i64 %36, 4294967297
  %38 = trunc i64 %36 to i32
  br i1 %37, label %39, label %47

39:                                               ; preds = %34
  store i32 0, ptr %35, align 8, !tbaa !15
  %40 = getelementptr inbounds nuw i8, ptr %33, i64 12
  store i32 0, ptr %40, align 4, !tbaa !17
  %41 = load ptr, ptr %33, align 8, !tbaa !18
  %42 = getelementptr inbounds nuw i8, ptr %41, i64 16
  %43 = load ptr, ptr %42, align 8
  call void %43(ptr noundef nonnull align 8 dereferenceable(16) %33) #23
  %44 = load ptr, ptr %33, align 8, !tbaa !18
  %45 = getelementptr inbounds nuw i8, ptr %44, i64 24
  %46 = load ptr, ptr %45, align 8
  call void %46(ptr noundef nonnull align 8 dereferenceable(16) %33) #23
  br label %_ZN2cv4GMatD2Ev.exit

47:                                               ; preds = %34
  %48 = load i8, ptr @__libc_single_threaded, align 1, !tbaa !12
  %.not.i.i.i.i7 = icmp eq i8 %48, 0
  br i1 %.not.i.i.i.i7, label %51, label %49

49:                                               ; preds = %47
  %50 = add nsw i32 %38, -1
  store i32 %50, ptr %35, align 4, !tbaa !13
  br label %_ZN9__gnu_cxx27__exchange_and_add_dispatchEPii.exit.i.i.i.i

51:                                               ; preds = %47
  %52 = atomicrmw volatile add ptr %35, i32 -1 acq_rel, align 4
  br label %_ZN9__gnu_cxx27__exchange_and_add_dispatchEPii.exit.i.i.i.i

_ZN9__gnu_cxx27__exchange_and_add_dispatchEPii.exit.i.i.i.i: ; preds = %51, %49
  %.0.i.i.i.i.i = phi i32 [ %38, %49 ], [ %52, %51 ]
  %53 = icmp eq i32 %.0.i.i.i.i.i, 1
  br i1 %53, label %54, label %_ZN2cv4GMatD2Ev.exit, !prof !20

54:                                               ; preds = %_ZN9__gnu_cxx27__exchange_and_add_dispatchEPii.exit.i.i.i.i
  call void @_ZNSt16_Sp_counted_baseILN9__gnu_cxx12_Lock_policyE2EE24_M_release_last_use_coldEv(ptr noundef nonnull align 8 dereferenceable(16) %33) #23
  br label %_ZN2cv4GMatD2Ev.exit

_ZN2cv4GMatD2Ev.exit:                             ; preds = %32, %39, %_ZN9__gnu_cxx27__exchange_and_add_dispatchEPii.exit.i.i.i.i, %54
  %55 = load ptr, ptr %9, align 8, !tbaa !11
  %.not.i.i.i8 = icmp eq ptr %55, null
  br i1 %.not.i.i.i8, label %_ZN2cv7GScalarD2Ev.exit, label %56

56:                                               ; preds = %_ZN2cv4GMatD2Ev.exit
  %57 = getelementptr inbounds nuw i8, ptr %55, i64 8
  %58 = load atomic i64, ptr %57 acquire, align 8
  %59 = icmp eq i64 %58, 4294967297
  %60 = trunc i64 %58 to i32
  br i1 %59, label %61, label %69

61:                                               ; preds = %56
  store i32 0, ptr %57, align 8, !tbaa !15
  %62 = getelementptr inbounds nuw i8, ptr %55, i64 12
  store i32 0, ptr %62, align 4, !tbaa !17
  %63 = load ptr, ptr %55, align 8, !tbaa !18
  %64 = getelementptr inbounds nuw i8, ptr %63, i64 16
  %65 = load ptr, ptr %64, align 8
  call void %65(ptr noundef nonnull align 8 dereferenceable(16) %55) #23
  %66 = load ptr, ptr %55, align 8, !tbaa !18
  %67 = getelementptr inbounds nuw i8, ptr %66, i64 24
  %68 = load ptr, ptr %67, align 8
  call void %68(ptr noundef nonnull align 8 dereferenceable(16) %55) #23
  br label %_ZN2cv7GScalarD2Ev.exit

69:                                               ; preds = %56
  %70 = load i8, ptr @__libc_single_threaded, align 1, !tbaa !12
  %.not.i.i.i.i9 = icmp eq i8 %70, 0
  br i1 %.not.i.i.i.i9, label %73, label %71

71:                                               ; preds = %69
  %72 = add nsw i32 %60, -1
  store i32 %72, ptr %57, align 4, !tbaa !13
  br label %_ZN9__gnu_cxx27__exchange_and_add_dispatchEPii.exit.i.i.i.i10

73:                                               ; preds = %69
  %74 = atomicrmw volatile add ptr %57, i32 -1 acq_rel, align 4
  br label %_ZN9__gnu_cxx27__exchange_and_add_dispatchEPii.exit.i.i.i.i10

_ZN9__gnu_cxx27__exchange_and_add_dispatchEPii.exit.i.i.i.i10: ; preds = %73, %71
  %.0.i.i.i.i.i11 = phi i32 [ %60, %71 ], [ %74, %73 ]
  %75 = icmp eq i32 %.0.i.i.i.i.i11, 1
  br i1 %75, label %76, label %_ZN2cv7GScalarD2Ev.exit, !prof !20

76:                                               ; preds = %_ZN9__gnu_cxx27__exchange_and_add_dispatchEPii.exit.i.i.i.i10
  call void @_ZNSt16_Sp_counted_baseILN9__gnu_cxx12_Lock_policyE2EE24_M_release_last_use_coldEv(ptr noundef nonnull align 8 dereferenceable(16) %55) #23
  br label %_ZN2cv7GScalarD2Ev.exit

_ZN2cv7GScalarD2Ev.exit:                          ; preds = %_ZN2cv4GMatD2Ev.exit, %61, %_ZN9__gnu_cxx27__exchange_and_add_dispatchEPii.exit.i.i.i.i10, %76
  ret void

77:                                               ; preds = %_ZN2cv4GMatC2ERKS0_.exit
  %78 = landingpad { ptr, i32 }
          cleanup
  call void @_ZN2cv4GMatD2Ev(ptr noundef nonnull align 8 dereferenceable(16) %7) #23
  call void @_ZN2cv7GScalarD2Ev(ptr noundef nonnull align 8 dereferenceable(16) %6) #23
  resume { ptr, i32 } %78
}